; Function Attrs: nounwind uwtable
define ptr @lean_erase_macro_scopes(ptr noundef %0) local_unnamed_addr #0 {
  br label %2

2:                                                ; preds = %20, %1
  %.08.i = phi ptr [ %0, %1 ], [ %22, %20 ]
  %3 = ptrtoint ptr %.08.i to i64
  %4 = and i64 %3, 1
  %.not.i.i = icmp eq i64 %4, 0
  br i1 %.not.i.i, label %8, label %5

5:                                                ; preds = %2
  %6 = lshr i64 %3, 1
  %7 = trunc i64 %6 to i32
  br label %lean_obj_tag.exit.i

8:                                                ; preds = %2
  %9 = getelementptr i8, ptr %.08.i, i64 4
  %.val.i.i = load i32, ptr %9, align 4
  %10 = lshr i32 %.val.i.i, 24
  br label %lean_obj_tag.exit.i

lean_obj_tag.exit.i:                              ; preds = %8, %5
  %.0.i.i = phi i32 [ %7, %5 ], [ %10, %8 ]
  switch i32 %.0.i.i, label %20 [
    i32 0, label %lean_dec.exit
    i32 1, label %11
  ]

11:                                               ; preds = %lean_obj_tag.exit.i
  %12 = getelementptr inbounds nuw i8, ptr %.08.i, i64 16
  %13 = load ptr, ptr %12, align 8, !tbaa !10
  %14 = load ptr, ptr @l_Lean_Name_hasMacroScopes___closed__1, align 8, !tbaa !10
  %15 = icmp eq ptr %13, %14
  br i1 %15, label %l_Lean_Name_hasMacroScopes.exit.thread14.preheader, label %16

16:                                               ; preds = %11
  %17 = getelementptr i8, ptr %13, i64 8
  %.val.i.i.i = load i64, ptr %17, align 8, !tbaa !17
  %18 = getelementptr i8, ptr %14, i64 8
  %.val7.i.i.i = load i64, ptr %18, align 8, !tbaa !17
  %19 = icmp eq i64 %.val.i.i.i, %.val7.i.i.i
  br i1 %19, label %l_Lean_Name_hasMacroScopes.exit, label %lean_dec.exit

20:                                               ; preds = %lean_obj_tag.exit.i
  %21 = getelementptr inbounds nuw i8, ptr %.08.i, i64 8
  %22 = load ptr, ptr %21, align 8, !tbaa !10
  br label %2

l_Lean_Name_hasMacroScopes.exit:                  ; preds = %16
  %23 = tail call zeroext i1 @lean_string_eq_cold(ptr noundef nonnull %13, ptr noundef nonnull %14) #11
  br i1 %23, label %l_Lean_Name_hasMacroScopes.exit.thread14.preheader, label %lean_dec.exit

l_Lean_Name_hasMacroScopes.exit.thread14.preheader: ; preds = %11, %l_Lean_Name_hasMacroScopes.exit
  br label %l_Lean_Name_hasMacroScopes.exit.thread14

l_Lean_Name_hasMacroScopes.exit.thread14:         ; preds = %l_Lean_Name_hasMacroScopes.exit.thread14.backedge, %l_Lean_Name_hasMacroScopes.exit.thread14.preheader
  %.014.i = phi ptr [ %0, %l_Lean_Name_hasMacroScopes.exit.thread14.preheader ], [ %.014.i.be, %l_Lean_Name_hasMacroScopes.exit.thread14.backedge ]
  %24 = ptrtoint ptr %.014.i to i64
  %25 = and i64 %24, 1
  %.not.i.i6 = icmp eq i64 %25, 0
  br i1 %.not.i.i6, label %29, label %26

26:                                               ; preds = %l_Lean_Name_hasMacroScopes.exit.thread14
  %27 = lshr i64 %24, 1
  %28 = trunc i64 %27 to i32
  br label %lean_obj_tag.exit.i7

29:                                               ; preds = %l_Lean_Name_hasMacroScopes.exit.thread14
  %30 = getelementptr i8, ptr %.014.i, i64 4
  %.val.i.i12 = load i32, ptr %30, align 4
  %31 = lshr i32 %.val.i.i12, 24
  br label %lean_obj_tag.exit.i7

lean_obj_tag.exit.i7:                             ; preds = %29, %26
  %.0.i.i8 = phi i32 [ %28, %26 ], [ %31, %29 ]
  switch i32 %.0.i.i8, label %52 [
    i32 0, label %l___private_Init_Prelude_0__Lean_eraseMacroScopesAux.exit
    i32 1, label %32
  ]

32:                                               ; preds = %lean_obj_tag.exit.i7
  %33 = getelementptr inbounds nuw i8, ptr %.014.i, i64 8
  %34 = load ptr, ptr %33, align 8, !tbaa !10
  %35 = getelementptr inbounds nuw i8, ptr %.014.i, i64 16
  %36 = load ptr, ptr %35, align 8, !tbaa !10
  %37 = load ptr, ptr @l___private_Init_Prelude_0__Lean_eraseMacroScopesAux___closed__1, align 8, !tbaa !10
  %38 = icmp eq ptr %36, %37
  br i1 %38, label %lean_string_dec_eq.exit.thread18.i, label %39

39:                                               ; preds = %32
  %40 = getelementptr i8, ptr %36, i64 8
  %.val.i.i.i9 = load i64, ptr %40, align 8, !tbaa !17
  %41 = getelementptr i8, ptr %37, i64 8
  %.val7.i.i.i10 = load i64, ptr %41, align 8, !tbaa !17
  %42 = icmp eq i64 %.val.i.i.i9, %.val7.i.i.i10
  br i1 %42, label %lean_string_dec_eq.exit.i, label %l_Lean_Name_hasMacroScopes.exit.thread14.backedge

lean_string_dec_eq.exit.i:                        ; preds = %39
  %43 = tail call zeroext i1 @lean_string_eq_cold(ptr noundef nonnull %36, ptr noundef nonnull %37) #11
  br i1 %43, label %lean_string_dec_eq.exit.thread18.i, label %l_Lean_Name_hasMacroScopes.exit.thread14.backedge

lean_string_dec_eq.exit.thread18.i:               ; preds = %lean_string_dec_eq.exit.i, %32
  %44 = ptrtoint ptr %34 to i64
  %45 = and i64 %44, 1
  %.not.i11 = icmp eq i64 %45, 0
  br i1 %.not.i11, label %46, label %l___private_Init_Prelude_0__Lean_eraseMacroScopesAux.exit

46:                                               ; preds = %lean_string_dec_eq.exit.thread18.i
  %.val.i16.i = load i32, ptr %34, align 4, !tbaa !4
  %47 = icmp sgt i32 %.val.i16.i, 0
  br i1 %47, label %48, label %50, !prof !9

48:                                               ; preds = %46
  %49 = add nuw i32 %.val.i16.i, 1
  store i32 %49, ptr %34, align 4, !tbaa !4
  br label %l___private_Init_Prelude_0__Lean_eraseMacroScopesAux.exit

50:                                               ; preds = %46
  %.not.i17.i = icmp eq i32 %.val.i16.i, 0
  br i1 %.not.i17.i, label %l___private_Init_Prelude_0__Lean_eraseMacroScopesAux.exit, label %51

51:                                               ; preds = %50
  tail call void @lean_inc_ref_cold(ptr noundef nonnull %34) #11
  br label %l___private_Init_Prelude_0__Lean_eraseMacroScopesAux.exit

52:                                               ; preds = %lean_obj_tag.exit.i7
  %53 = getelementptr inbounds nuw i8, ptr %.014.i, i64 8
  %54 = load ptr, ptr %53, align 8, !tbaa !10
  br label %l_Lean_Name_hasMacroScopes.exit.thread14.backedge

l_Lean_Name_hasMacroScopes.exit.thread14.backedge: ; preds = %52, %lean_string_dec_eq.exit.i, %39
  %.014.i.be = phi ptr [ %54, %52 ], [ %34, %39 ], [ %34, %lean_string_dec_eq.exit.i ]
  br label %l_Lean_Name_hasMacroScopes.exit.thread14

l___private_Init_Prelude_0__Lean_eraseMacroScopesAux.exit: ; preds = %lean_obj_tag.exit.i7, %lean_string_dec_eq.exit.thread18.i, %48, %50, %51
  %.1.i = phi ptr [ %34, %51 ], [ %34, %50 ], [ %34, %48 ], [ %34, %lean_string_dec_eq.exit.thread18.i ], [ inttoptr (i64 1 to ptr), %lean_obj_tag.exit.i7 ]
  %55 = ptrtoint ptr %0 to i64
  %56 = and i64 %55, 1
  %.not = icmp eq i64 %56, 0
  br i1 %.not, label %57, label %lean_dec.exit

57:                                               ; preds = %l___private_Init_Prelude_0__Lean_eraseMacroScopesAux.exit
  %58 = load i32, ptr %0, align 4, !tbaa !4
  %59 = icmp sgt i32 %58, 1
  br i1 %59, label %60, label %62, !prof !9

60:                                               ; preds = %57
  %61 = add nsw i32 %58, -1
  store i32 %61, ptr %0, align 4, !tbaa !4
  br label %lean_dec.exit

62:                                               ; preds = %57
  %.not.i = icmp eq i32 %58, 0
  br i1 %.not.i, label %lean_dec.exit, label %63

63:                                               ; preds = %62
  tail call void @lean_dec_ref_cold(ptr noundef nonnull %0) #11
  br label %lean_dec.exit

lean_dec.exit:                                    ; preds = %lean_obj_tag.exit.i, %16, %l___private_Init_Prelude_0__Lean_eraseMacroScopesAux.exit, %60, %62, %63, %l_Lean_Name_hasMacroScopes.exit
  %.0 = phi ptr [ %0, %l_Lean_Name_hasMacroScopes.exit ], [ %.1.i, %63 ], [ %.1.i, %62 ], [ %.1.i, %60 ], [ %.1.i, %l___private_Init_Prelude_0__Lean_eraseMacroScopesAux.exit ], [ %0, %16 ], [ %0, %lean_obj_tag.exit.i ]
  ret ptr %.0
}